target datalayout = "e-m:e-p270:32:32-p271:32:32-p272:64:64-i64:64-i128:128-f80:128-n8:16:32:64-S128"
target triple = "x86_64-pc-linux-gnu"

%struct._object = type { %union.anon, ptr }
%union.anon = type { i64 }
%struct.HMACobject = type { %struct._object, ptr, i8, %struct.PyMutex }
%struct.PyMutex = type { i8 }

@PyExc_ValueError = external global ptr, align 8

; Function Attrs: nounwind uwtable
define internal ptr @_hashlib_hmac_get_block_size(ptr noundef %0, ptr noundef %1) #0 {
  %3 = alloca ptr, align 8
  %4 = alloca ptr, align 8
  %5 = alloca ptr, align 8
  %6 = alloca ptr, align 8
  %7 = alloca i32, align 4
  store ptr %0, ptr %4, align 8, !tbaa !3
  store ptr %1, ptr %5, align 8, !tbaa !3
  call void @llvm.lifetime.start.p0(i64 8, ptr %6) #9
  %8 = load ptr, ptr %4, align 8, !tbaa !3
  %9 = getelementptr inbounds nuw %struct.HMACobject, ptr %8, i32 0, i32 1
  %10 = load ptr, ptr %9, align 8, !tbaa !7
  %11 = call ptr @HMAC_CTX_get_md(ptr noundef %10)
  store ptr %11, ptr %6, align 8, !tbaa !17
  %12 = load ptr, ptr %6, align 8, !tbaa !17
  %13 = icmp eq ptr %12, null
  br i1 %13, label %14, label %17

14:                                               ; preds = %2
  %15 = load ptr, ptr @PyExc_ValueError, align 8, !tbaa !14
  %16 = call ptr (ptr, ptr, ...) @_setException(ptr noundef %15, ptr noundef null)
  store ptr %16, ptr %3, align 8
  store i32 1, ptr %7, align 4
  br label %22

17:                                               ; preds = %2
  %18 = load ptr, ptr %6, align 8, !tbaa !17
  %19 = call i32 @EVP_MD_get_block_size(ptr noundef %18)
  %20 = sext i32 %19 to i64
  %21 = call ptr @PyLong_FromLong(i64 noundef %20)
  store ptr %21, ptr %3, align 8
  store i32 1, ptr %7, align 4
  br label %22

22:                                               ; preds = %17, %14
  call void @llvm.lifetime.end.p0(i64 8, ptr %6) #9
  %23 = load ptr, ptr %3, align 8
  ret ptr %23
}