; Function Attrs: nounwind uwtable
define internal ptr @_hashlib_hmac_get_block_size(ptr noundef readonly captures(none) %0, ptr readnone captures(none) %1) #0 {
  %3 = getelementptr inbounds nuw i8, ptr %0, i64 16
  %4 = load ptr, ptr %3, align 8, !tbaa !3
  %5 = tail call ptr @HMAC_CTX_get_md(ptr noundef %4) #9
  %6 = icmp eq ptr %5, null
  br i1 %6, label %7, label %9

7:                                                ; preds = %2
  %8 = load ptr, ptr @PyExc_ValueError, align 8, !tbaa !23
  tail call void (ptr, ptr, ...) @_setException(ptr noundef %8, ptr noundef null)
  br label %13

9:                                                ; preds = %2
  %10 = tail call i32 @EVP_MD_get_block_size(ptr noundef nonnull %5) #9
  %11 = sext i32 %10 to i64
  %12 = tail call ptr @PyLong_FromLong(i64 noundef %11) #9
  br label %13

13:                                               ; preds = %9, %7
  %.0 = phi ptr [ null, %7 ], [ %12, %9 ]
  ret ptr %.0
}